target datalayout = "e-m:e-p270:32:32-p271:32:32-p272:64:64-i64:64-i128:128-f80:128-n8:16:32:64-S128"
target triple = "x86_64-pc-linux-gnu"

%class.svector = type { %class.vector.0 }
%class.vector.0 = type { ptr }
%"class.datalog::table_signature" = type <{ %"class.datalog::tr_infrastructure<datalog::table_traits>::signature_base", i32, [4 x i8] }>
%"class.datalog::tr_infrastructure<datalog::table_traits>::signature_base" = type { %class.svector }

; Function Attrs: mustprogress nounwind uwtable
define linkonce_odr hidden noundef i32 @_ZNK6vectorImLb0EjE4sizeEv(ptr noundef nonnull align 8 dereferenceable(8) %0) #6 comdat align 2 {
  %2 = alloca i32, align 4
  %3 = alloca ptr, align 8
  store ptr %0, ptr %3, align 8, !tbaa !372
  %4 = load ptr, ptr %3, align 8
  %5 = getelementptr inbounds nuw %class.vector.0, ptr %4, i32 0, i32 0
  %6 = load ptr, ptr %5, align 8, !tbaa !374
  %7 = icmp eq ptr %6, null
  br i1 %7, label %8, label %9

8:                                                ; preds = %1
  store i32 0, ptr %2, align 4
  br label %14

9:                                                ; preds = %1
  %10 = getelementptr inbounds nuw %class.vector.0, ptr %4, i32 0, i32 0
  %11 = load ptr, ptr %10, align 8, !tbaa !374
  %12 = getelementptr inbounds i32, ptr %11, i64 -1
  %13 = load i32, ptr %12, align 4, !tbaa !29
  store i32 %13, ptr %2, align 4
  br label %14

14:                                               ; preds = %9, %8
  %15 = load i32, ptr %2, align 4
  ret i32 %15
}

; Function Attrs: mustprogress nounwind uwtable
define linkonce_odr hidden void @_ZN7datalog15table_signature22set_functional_columnsEj(ptr noundef nonnull align 8 dereferenceable(12) %0, i32 noundef %1) #6 comdat align 2 {
  %3 = alloca ptr, align 8
  %4 = alloca i32, align 4
  store ptr %0, ptr %3, align 8, !tbaa !365
  store i32 %1, ptr %4, align 4, !tbaa !29
  %5 = load ptr, ptr %3, align 8
  %6 = load i32, ptr %4, align 4, !tbaa !29
  %7 = getelementptr inbounds nuw %"class.datalog::table_signature", ptr %5, i32 0, i32 1
  store i32 %6, ptr %7, align 8, !tbaa !375
  ret void
}

; Function Attrs: mustprogress uwtable
define linkonce_odr hidden noundef i32 @_ZNK7datalog15table_signature16first_functionalEv(ptr noundef nonnull align 8 dereferenceable(12) %0) #4 comdat align 2 {
  %2 = alloca ptr, align 8
  store ptr %0, ptr %2, align 8, !tbaa !365
  %3 = load ptr, ptr %2, align 8
  %4 = call noundef i32 @_ZNK6vectorImLb0EjE4sizeEv(ptr noundef nonnull align 8 dereferenceable(8) %3)
  %5 = getelementptr inbounds nuw %"class.datalog::table_signature", ptr %3, i32 0, i32 1
  %6 = load i32, ptr %5, align 8, !tbaa !375
  %7 = sub i32 %4, %6
  ret i32 %7
}

; Function Attrs: mustprogress nounwind uwtable
define linkonce_odr hidden noundef i32 @_ZNK7datalog15table_signature18functional_columnsEv(ptr noundef nonnull align 8 dereferenceable(12) %0) #6 comdat align 2 {
  %2 = alloca ptr, align 8
  store ptr %0, ptr %2, align 8, !tbaa !365
  %3 = load ptr, ptr %2, align 8
  %4 = getelementptr inbounds nuw %"class.datalog::table_signature", ptr %3, i32 0, i32 1
  %5 = load i32, ptr %4, align 8, !tbaa !375
  ret i32 %5
}

; Function Attrs: mustprogress uwtable
define hidden void @_ZN7datalog15table_signature24from_project_with_reduceERKS0_jPKjRS0_(ptr noundef nonnull align 8 dereferenceable(12) %0, i32 noundef %1, ptr noundef %2, ptr noundef nonnull align 8 dereferenceable(12) %3) #4 align 2 {
  %5 = alloca ptr, align 8
  %6 = alloca i32, align 4
  %7 = alloca ptr, align 8
  %8 = alloca ptr, align 8
  %9 = alloca i32, align 4
  %10 = alloca i32, align 4
  %11 = alloca i32, align 4
  %12 = alloca i32, align 4
  store ptr %0, ptr %5, align 8, !tbaa !365
  store i32 %1, ptr %6, align 4, !tbaa !29
  store ptr %2, ptr %7, align 8, !tbaa !367
  store ptr %3, ptr %8, align 8, !tbaa !365
  %13 = load ptr, ptr %5, align 8, !tbaa !365
  %14 = load i32, ptr %6, align 4, !tbaa !29
  %15 = load ptr, ptr %7, align 8, !tbaa !367
  %16 = load ptr, ptr %8, align 8, !tbaa !365
  call void @_ZN7datalog17tr_infrastructureINS_12table_traitsEE14signature_base12from_projectERKNS_15table_signatureEjPKjRS4_(ptr noundef nonnull align 8 dereferenceable(12) %13, i32 noundef %14, ptr noundef %15, ptr noundef nonnull align 8 dereferenceable(12) %16)
  call void @llvm.lifetime.start.p0(i64 4, ptr %9) #3
  %17 = load ptr, ptr %5, align 8, !tbaa !365
  %18 = call noundef i32 @_ZNK7datalog15table_signature18functional_columnsEv(ptr noundef nonnull align 8 dereferenceable(12) %17)
  store i32 %18, ptr %9, align 4, !tbaa !29
  call void @llvm.lifetime.start.p0(i64 4, ptr %10) #3
  %19 = load ptr, ptr %5, align 8, !tbaa !365
  %20 = call noundef i32 @_ZNK7datalog15table_signature16first_functionalEv(ptr noundef nonnull align 8 dereferenceable(12) %19)
  store i32 %20, ptr %10, align 4, !tbaa !29
  call void @llvm.lifetime.start.p0(i64 4, ptr %11) #3
  %21 = load i32, ptr %6, align 4, !tbaa !29
  %22 = sub i32 %21, 1
  store i32 %22, ptr %11, align 4, !tbaa !29
  br label %23

23:                                               ; preds = %39, %4
  %24 = load i32, ptr %11, align 4, !tbaa !29
  %25 = icmp sge i32 %24, 0
  br i1 %25, label %27, label %26

26:                                               ; preds = %23
  store i32 2, ptr %12, align 4
  br label %42

27:                                               ; preds = %23
  %28 = load ptr, ptr %7, align 8, !tbaa !367
  %29 = load i32, ptr %11, align 4, !tbaa !29
  %30 = sext i32 %29 to i64
  %31 = getelementptr inbounds i32, ptr %28, i64 %30
  %32 = load i32, ptr %31, align 4, !tbaa !29
  %33 = load i32, ptr %10, align 4, !tbaa !29
  %34 = icmp ult i32 %32, %33
  br i1 %34, label %35, label %36

35:                                               ; preds = %27
  store i32 2, ptr %12, align 4
  br label %42

36:                                               ; preds = %27
  %37 = load i32, ptr %9, align 4, !tbaa !29
  %38 = add i32 %37, -1
  store i32 %38, ptr %9, align 4, !tbaa !29
  br label %39

39:                                               ; preds = %36
  %40 = load i32, ptr %11, align 4, !tbaa !29
  %41 = add nsw i32 %40, -1
  store i32 %41, ptr %11, align 4, !tbaa !29
  br label %23, !llvm.loop !380

42:                                               ; preds = %35, %26
  call void @llvm.lifetime.end.p0(i64 4, ptr %11) #3
  br label %43

43:                                               ; preds = %42
  %44 = load ptr, ptr %8, align 8, !tbaa !365
  %45 = load i32, ptr %9, align 4, !tbaa !29
  call void @_ZN7datalog15table_signature22set_functional_columnsEj(ptr noundef nonnull align 8 dereferenceable(12) %44, i32 noundef %45)
  call void @llvm.lifetime.end.p0(i64 4, ptr %10) #3
  call void @llvm.lifetime.end.p0(i64 4, ptr %9) #3
  ret void
}