; Function Attrs: mustprogress uwtable
define hidden void @_ZN7datalog15table_signature24from_project_with_reduceERKS0_jPKjRS0_(ptr noundef nonnull align 8 dereferenceable(12) %0, i32 noundef %1, ptr noundef %2, ptr noundef nonnull align 8 dereferenceable(12) %3) local_unnamed_addr #3 align 2 {
  tail call void @_ZN7datalog17tr_infrastructureINS_12table_traitsEE14signature_base12from_projectERKNS_15table_signatureEjPKjRS4_(ptr noundef nonnull align 8 dereferenceable(12) %0, i32 noundef %1, ptr noundef %2, ptr noundef nonnull align 8 dereferenceable(12) %3)
  %5 = getelementptr inbounds nuw i8, ptr %0, i64 8
  %6 = load i32, ptr %5, align 8, !tbaa !329
  %7 = load ptr, ptr %0, align 8, !tbaa !328
  %8 = icmp eq ptr %7, null
  br i1 %8, label %_ZNK7datalog15table_signature16first_functionalEv.exit, label %9

9:                                                ; preds = %4
  %10 = getelementptr inbounds i8, ptr %7, i64 -4
  %11 = load i32, ptr %10, align 4, !tbaa !12
  br label %_ZNK7datalog15table_signature16first_functionalEv.exit

_ZNK7datalog15table_signature16first_functionalEv.exit: ; preds = %4, %9
  %.0.i.i = phi i32 [ %11, %9 ], [ 0, %4 ]
  %12 = sub i32 %.0.i.i, %6
  %.015 = add i32 %1, -1
  %13 = icmp sgt i32 %.015, -1
  br i1 %13, label %.lr.ph.preheader, label %._crit_edge

.lr.ph.preheader:                                 ; preds = %_ZNK7datalog15table_signature16first_functionalEv.exit
  %14 = sub i32 %6, %1
  br label %.lr.ph

.lr.ph:                                           ; preds = %.lr.ph.preheader, %19
  %.017 = phi i32 [ %.0, %19 ], [ %.015, %.lr.ph.preheader ]
  %.01416 = phi i32 [ %20, %19 ], [ %6, %.lr.ph.preheader ]
  %15 = zext nneg i32 %.017 to i64
  %16 = getelementptr inbounds nuw i32, ptr %2, i64 %15
  %17 = load i32, ptr %16, align 4, !tbaa !12
  %18 = icmp ult i32 %17, %12
  br i1 %18, label %._crit_edge, label %19

19:                                               ; preds = %.lr.ph
  %20 = add i32 %.01416, -1
  %.0 = add nsw i32 %.017, -1
  %21 = icmp sgt i32 %.017, 0
  br i1 %21, label %.lr.ph, label %._crit_edge, !llvm.loop !339

._crit_edge:                                      ; preds = %19, %.lr.ph, %_ZNK7datalog15table_signature16first_functionalEv.exit
  %.014.lcssa = phi i32 [ %6, %_ZNK7datalog15table_signature16first_functionalEv.exit ], [ %.01416, %.lr.ph ], [ %14, %19 ]
  %22 = getelementptr inbounds nuw i8, ptr %3, i64 8
  store i32 %.014.lcssa, ptr %22, align 8, !tbaa !329
  ret void
}